target datalayout = "e-m:e-p270:32:32-p271:32:32-p272:64:64-i64:64-i128:128-f80:128-n8:16:32:64-S128"
target triple = "x86_64-pc-linux-gnu"

%"class.Ipopt::TripletToCSRConverter" = type { %"class.Ipopt::ReferencedObject.base", i32, i32, ptr, ptr, i32, i32, i32, i32, i8, ptr, ptr, ptr }
%"class.Ipopt::ReferencedObject.base" = type <{ ptr, i32 }>

@_ZTVN5Ipopt21TripletToCSRConverterE = unnamed_addr constant { [4 x ptr] } { [4 x ptr] [ptr null, ptr @_ZTIN5Ipopt21TripletToCSRConverterE, ptr @_ZN5Ipopt21TripletToCSRConverterD1Ev, ptr @_ZN5Ipopt21TripletToCSRConverterD0Ev] }, align 8
@_ZTVN5Ipopt16ReferencedObjectE = linkonce_odr unnamed_addr constant { [4 x ptr] } { [4 x ptr] [ptr null, ptr @_ZTIN5Ipopt16ReferencedObjectE, ptr @_ZN5Ipopt16ReferencedObjectD2Ev, ptr @_ZN5Ipopt16ReferencedObjectD0Ev] }, comdat, align 8

; Function Attrs: mustprogress nounwind uwtable
define linkonce_odr void @_ZN5Ipopt16ReferencedObjectD2Ev(ptr noundef nonnull align 8 dereferenceable(12) %0) unnamed_addr #1 comdat align 2 {
  %2 = alloca ptr, align 8
  store ptr %0, ptr %2, align 8, !tbaa !29
  %3 = load ptr, ptr %2, align 8
  store ptr getelementptr inbounds inrange(-16, 16) ({ [4 x ptr] }, ptr @_ZTVN5Ipopt16ReferencedObjectE, i32 0, i32 0, i32 2), ptr %3, align 8, !tbaa !12
  ret void
}

; Function Attrs: mustprogress nounwind uwtable
define void @_ZN5Ipopt21TripletToCSRConverterD2Ev(ptr noundef nonnull align 8 dereferenceable(88) %0) unnamed_addr #1 align 2 {
  %2 = alloca ptr, align 8
  store ptr %0, ptr %2, align 8, !tbaa !3
  %3 = load ptr, ptr %2, align 8
  store ptr getelementptr inbounds inrange(-16, 16) ({ [4 x ptr] }, ptr @_ZTVN5Ipopt21TripletToCSRConverterE, i32 0, i32 0, i32 2), ptr %3, align 8, !tbaa !12
  %4 = getelementptr inbounds nuw %"class.Ipopt::TripletToCSRConverter", ptr %3, i32 0, i32 3
  %5 = load ptr, ptr %4, align 8, !tbaa !20
  %6 = icmp eq ptr %5, null
  br i1 %6, label %8, label %7

7:                                                ; preds = %1
  call void @_ZdaPv(ptr noundef %5) #13
  br label %8

8:                                                ; preds = %7, %1
  %9 = getelementptr inbounds nuw %"class.Ipopt::TripletToCSRConverter", ptr %3, i32 0, i32 4
  %10 = load ptr, ptr %9, align 8, !tbaa !21
  %11 = icmp eq ptr %10, null
  br i1 %11, label %13, label %12

12:                                               ; preds = %8
  call void @_ZdaPv(ptr noundef %10) #13
  br label %13

13:                                               ; preds = %12, %8
  %14 = getelementptr inbounds nuw %"class.Ipopt::TripletToCSRConverter", ptr %3, i32 0, i32 10
  %15 = load ptr, ptr %14, align 8, !tbaa !26
  %16 = icmp eq ptr %15, null
  br i1 %16, label %18, label %17

17:                                               ; preds = %13
  call void @_ZdaPv(ptr noundef %15) #13
  br label %18

18:                                               ; preds = %17, %13
  %19 = getelementptr inbounds nuw %"class.Ipopt::TripletToCSRConverter", ptr %3, i32 0, i32 11
  %20 = load ptr, ptr %19, align 8, !tbaa !27
  %21 = icmp eq ptr %20, null
  br i1 %21, label %23, label %22

22:                                               ; preds = %18
  call void @_ZdaPv(ptr noundef %20) #13
  br label %23

23:                                               ; preds = %22, %18
  %24 = getelementptr inbounds nuw %"class.Ipopt::TripletToCSRConverter", ptr %3, i32 0, i32 12
  %25 = load ptr, ptr %24, align 8, !tbaa !28
  %26 = icmp eq ptr %25, null
  br i1 %26, label %28, label %27

27:                                               ; preds = %23
  call void @_ZdaPv(ptr noundef %25) #13
  br label %28

28:                                               ; preds = %27, %23
  call void @_ZN5Ipopt16ReferencedObjectD2Ev(ptr noundef nonnull align 8 dereferenceable(12) %3) #14
  ret void
}